target datalayout = "e-m:e-p270:32:32-p271:32:32-p272:64:64-i64:64-i128:128-f80:128-n8:16:32:64-S128"
target triple = "x86_64-pc-linux-gnu"

@.str = private unnamed_addr constant [42 x i8] c"javax/sound/midi/MidiUnavailableException\00", align 1

; Function Attrs: nounwind uwtable
define i64 @Java_com_sun_media_sound_MidiInDevice_nOpen(ptr noundef %0, ptr noundef %1, i32 noundef %2) #0 {
  %4 = alloca ptr, align 8
  %5 = alloca ptr, align 8
  %6 = alloca i32, align 4
  %7 = alloca ptr, align 8
  %8 = alloca i32, align 4
  store ptr %0, ptr %4, align 8
  store ptr %1, ptr %5, align 8
  store i32 %2, ptr %6, align 4
  store ptr null, ptr %7, align 8
  store i32 -11111, ptr %8, align 4
  %9 = load i32, ptr %6, align 4
  %10 = call i32 @MIDI_IN_OpenDevice(i32 noundef %9, ptr noundef %7)
  store i32 %10, ptr %8, align 4
  %11 = load ptr, ptr %7, align 8
  %12 = icmp ne ptr %11, null
  br i1 %12, label %13, label %16

13:                                               ; preds = %3
  %14 = load i32, ptr %8, align 4
  %15 = icmp ne i32 %14, 0
  br i1 %15, label %16, label %20

16:                                               ; preds = %13, %3
  store ptr null, ptr %7, align 8
  %17 = load ptr, ptr %4, align 8
  %18 = load i32, ptr %8, align 4
  %19 = call ptr @MIDI_IN_InternalGetErrorString(i32 noundef %18)
  call void @ThrowJavaMessageException(ptr noundef %17, ptr noundef @.str, ptr noundef %19)
  br label %21

20:                                               ; preds = %13
  br label %21

21:                                               ; preds = %20, %16
  %22 = load ptr, ptr %7, align 8
  %23 = ptrtoint ptr %22 to i64
  ret i64 %23
}