; Function Attrs: nounwind uwtable
define i64 @Java_com_sun_media_sound_MidiInDevice_nOpen(ptr noundef %0, ptr nocapture noundef readnone %1, i32 noundef %2) local_unnamed_addr #0 {
  %4 = alloca ptr, align 8
  store ptr null, ptr %4, align 8
  %5 = call i32 @MIDI_IN_OpenDevice(i32 noundef %2, ptr noundef nonnull %4) #4
  %6 = load ptr, ptr %4, align 8
  %7 = icmp eq ptr %6, null
  %8 = icmp ne i32 %5, 0
  %or.cond = select i1 %7, i1 true, i1 %8
  br i1 %or.cond, label %9, label %11

9:                                                ; preds = %3
  store ptr null, ptr %4, align 8
  %10 = call ptr @MIDI_IN_InternalGetErrorString(i32 noundef %5) #4
  call void @ThrowJavaMessageException(ptr noundef %0, ptr noundef nonnull @.str, ptr noundef %10) #4
  %.pre = load ptr, ptr %4, align 8
  br label %11

11:                                               ; preds = %3, %9
  %12 = phi ptr [ %6, %3 ], [ %.pre, %9 ]
  %13 = ptrtoint ptr %12 to i64
  ret i64 %13
}